target datalayout = "e-m:e-p270:32:32-p271:32:32-p272:64:64-i64:64-i128:128-f80:128-n8:16:32:64-S128"
target triple = "x86_64-pc-linux-gnu"

%struct.TestNode = type { ptr, ptr, ptr, [1 x i8] }

@.str = private unnamed_addr constant [1 x i8] zeroinitializer, align 1

; Function Attrs: nounwind uwtable
define internal i32 @strncmp_nullcheck(ptr noundef %0, ptr noundef %1, i32 noundef %2) #0 {
  %4 = alloca i32, align 4
  %5 = alloca ptr, align 8
  %6 = alloca ptr, align 8
  %7 = alloca i32, align 4
  store ptr %0, ptr %5, align 8, !tbaa !15
  store ptr %1, ptr %6, align 8, !tbaa !15
  store i32 %2, ptr %7, align 4, !tbaa !18
  %8 = load ptr, ptr %6, align 8, !tbaa !15
  %9 = call i64 @strlen(ptr noundef %8) #14
  %10 = trunc i64 %9 to i32
  %11 = load i32, ptr %7, align 4, !tbaa !18
  %12 = icmp sge i32 %10, %11
  br i1 %12, label %13, label %22

13:                                               ; preds = %3
  %14 = load ptr, ptr %6, align 8, !tbaa !15
  %15 = load i32, ptr %7, align 4, !tbaa !18
  %16 = sext i32 %15 to i64
  %17 = getelementptr inbounds i8, ptr %14, i64 %16
  %18 = load i8, ptr %17, align 1, !tbaa !20
  %19 = sext i8 %18 to i32
  %20 = icmp ne i32 %19, 0
  br i1 %20, label %21, label %22

21:                                               ; preds = %13
  store i32 3, ptr %4, align 4
  br label %28

22:                                               ; preds = %13, %3
  %23 = load ptr, ptr %5, align 8, !tbaa !15
  %24 = load ptr, ptr %6, align 8, !tbaa !15
  %25 = load i32, ptr %7, align 4, !tbaa !18
  %26 = sext i32 %25 to i64
  %27 = call i32 @strncmp(ptr noundef %23, ptr noundef %24, i64 noundef %26) #14
  store i32 %27, ptr %4, align 4
  br label %28

28:                                               ; preds = %22, %21
  %29 = load i32, ptr %4, align 4
  ret i32 %29
}

; Function Attrs: nounwind uwtable
define internal void @getNextLevel(ptr noundef %0, ptr noundef %1, ptr noundef %2) #0 {
  %4 = alloca ptr, align 8
  %5 = alloca ptr, align 8
  %6 = alloca ptr, align 8
  %7 = alloca [255 x i8], align 16
  store ptr %0, ptr %4, align 8, !tbaa !15
  store ptr %1, ptr %5, align 8, !tbaa !32
  store ptr %2, ptr %6, align 8, !tbaa !34
  %8 = load ptr, ptr %4, align 8, !tbaa !15
  %9 = call ptr @strchr(ptr noundef %8, i32 noundef 47) #14
  %10 = load ptr, ptr %6, align 8, !tbaa !34
  store ptr %9, ptr %10, align 8, !tbaa !15
  %11 = load ptr, ptr %6, align 8, !tbaa !34
  %12 = load ptr, ptr %11, align 8, !tbaa !15
  %13 = icmp ne ptr %12, null
  br i1 %13, label %14, label %36

14:                                               ; preds = %3
  call void @llvm.lifetime.start.p0(i64 255, ptr %7) #12
  %15 = load ptr, ptr %6, align 8, !tbaa !34
  %16 = load ptr, ptr %15, align 8, !tbaa !15
  %17 = load ptr, ptr %4, align 8, !tbaa !15
  %18 = ptrtoint ptr %16 to i64
  %19 = ptrtoint ptr %17 to i64
  %20 = sub i64 %18, %19
  %21 = trunc i64 %20 to i32
  %22 = load ptr, ptr %5, align 8, !tbaa !32
  store i32 %21, ptr %22, align 4, !tbaa !18
  %23 = load ptr, ptr %6, align 8, !tbaa !34
  %24 = load ptr, ptr %23, align 8, !tbaa !15
  %25 = getelementptr inbounds nuw i8, ptr %24, i32 1
  store ptr %25, ptr %23, align 8, !tbaa !15
  %26 = getelementptr inbounds [255 x i8], ptr %7, i64 0, i64 0
  %27 = load ptr, ptr %4, align 8, !tbaa !15
  %28 = load ptr, ptr %5, align 8, !tbaa !32
  %29 = load i32, ptr %28, align 4, !tbaa !18
  %30 = sext i32 %29 to i64
  %31 = call ptr @strncpy(ptr noundef %26, ptr noundef %27, i64 noundef %30) #12
  %32 = load ptr, ptr %5, align 8, !tbaa !32
  %33 = load i32, ptr %32, align 4, !tbaa !18
  %34 = sext i32 %33 to i64
  %35 = getelementptr inbounds [255 x i8], ptr %7, i64 0, i64 %34
  store i8 0, ptr %35, align 1, !tbaa !20
  call void @llvm.lifetime.end.p0(i64 255, ptr %7) #12
  br label %41

36:                                               ; preds = %3
  %37 = load ptr, ptr %4, align 8, !tbaa !15
  %38 = call i64 @strlen(ptr noundef %37) #14
  %39 = trunc i64 %38 to i32
  %40 = load ptr, ptr %5, align 8, !tbaa !32
  store i32 %39, ptr %40, align 4, !tbaa !18
  br label %41

41:                                               ; preds = %36, %14
  ret void
}

; Function Attrs: nounwind uwtable
define internal ptr @addTestNode(ptr noundef %0, ptr noundef %1) #0 {
  %3 = alloca ptr, align 8
  %4 = alloca ptr, align 8
  %5 = alloca ptr, align 8
  %6 = alloca ptr, align 8
  %7 = alloca ptr, align 8
  %8 = alloca ptr, align 8
  %9 = alloca i32, align 4
  %10 = alloca i32, align 4
  store ptr %0, ptr %4, align 8, !tbaa !3
  store ptr %1, ptr %5, align 8, !tbaa !15
  call void @llvm.lifetime.start.p0(i64 8, ptr %6) #12
  call void @llvm.lifetime.start.p0(i64 8, ptr %7) #12
  call void @llvm.lifetime.start.p0(i64 8, ptr %8) #12
  call void @llvm.lifetime.start.p0(i64 4, ptr %9) #12
  %11 = load ptr, ptr %5, align 8, !tbaa !15
  %12 = load i8, ptr %11, align 1, !tbaa !20
  %13 = sext i8 %12 to i32
  %14 = icmp eq i32 %13, 47
  br i1 %14, label %15, label %18

15:                                               ; preds = %2
  %16 = load ptr, ptr %5, align 8, !tbaa !15
  %17 = getelementptr inbounds nuw i8, ptr %16, i32 1
  store ptr %17, ptr %5, align 8, !tbaa !15
  br label %18

18:                                               ; preds = %15, %2
  %19 = load ptr, ptr %4, align 8, !tbaa !3
  store ptr %19, ptr %8, align 8, !tbaa !3
  br label %20

20:                                               ; preds = %73, %18
  %21 = load ptr, ptr %8, align 8, !tbaa !3
  %22 = getelementptr inbounds nuw %struct.TestNode, ptr %21, i32 0, i32 2
  %23 = load ptr, ptr %22, align 8, !tbaa !8
  store ptr %23, ptr %7, align 8, !tbaa !3
  %24 = load ptr, ptr %5, align 8, !tbaa !15
  call void @getNextLevel(ptr noundef %24, ptr noundef %9, ptr noundef %6)
  %25 = load ptr, ptr %7, align 8, !tbaa !3
  %26 = icmp eq ptr %25, null
  br i1 %26, label %27, label %44

27:                                               ; preds = %20
  br label %28

28:                                               ; preds = %39, %27
  %29 = load ptr, ptr %5, align 8, !tbaa !15
  call void @getNextLevel(ptr noundef %29, ptr noundef %9, ptr noundef %6)
  %30 = load ptr, ptr %5, align 8, !tbaa !15
  %31 = load i32, ptr %9, align 4, !tbaa !18
  %32 = call ptr @createTestNode(ptr noundef %30, i32 noundef %31)
  %33 = load ptr, ptr %8, align 8, !tbaa !3
  %34 = getelementptr inbounds nuw %struct.TestNode, ptr %33, i32 0, i32 2
  store ptr %32, ptr %34, align 8, !tbaa !8
  %35 = load ptr, ptr %8, align 8, !tbaa !3
  %36 = getelementptr inbounds nuw %struct.TestNode, ptr %35, i32 0, i32 2
  %37 = load ptr, ptr %36, align 8, !tbaa !8
  store ptr %37, ptr %8, align 8, !tbaa !3
  %38 = load ptr, ptr %6, align 8, !tbaa !15
  store ptr %38, ptr %5, align 8, !tbaa !15
  br label %39

39:                                               ; preds = %28
  %40 = load ptr, ptr %5, align 8, !tbaa !15
  %41 = icmp ne ptr %40, null
  br i1 %41, label %28, label %42, !llvm.loop !21

42:                                               ; preds = %39
  %43 = load ptr, ptr %8, align 8, !tbaa !3
  store ptr %43, ptr %3, align 8
  store i32 1, ptr %10, align 4
  br label %76

44:                                               ; preds = %20
  br label %45

45:                                               ; preds = %67, %44
  %46 = load ptr, ptr %5, align 8, !tbaa !15
  %47 = load ptr, ptr %7, align 8, !tbaa !3
  %48 = getelementptr inbounds nuw %struct.TestNode, ptr %47, i32 0, i32 3
  %49 = getelementptr inbounds [1 x i8], ptr %48, i64 0, i64 0
  %50 = load i32, ptr %9, align 4, !tbaa !18
  %51 = call i32 @strncmp_nullcheck(ptr noundef %46, ptr noundef %49, i32 noundef %50)
  %52 = icmp ne i32 %51, 0
  br i1 %52, label %53, label %68

53:                                               ; preds = %45
  %54 = load ptr, ptr %7, align 8, !tbaa !3
  store ptr %54, ptr %8, align 8, !tbaa !3
  %55 = load ptr, ptr %7, align 8, !tbaa !3
  %56 = getelementptr inbounds nuw %struct.TestNode, ptr %55, i32 0, i32 1
  %57 = load ptr, ptr %56, align 8, !tbaa !10
  store ptr %57, ptr %7, align 8, !tbaa !3
  %58 = load ptr, ptr %7, align 8, !tbaa !3
  %59 = icmp eq ptr %58, null
  br i1 %59, label %60, label %67

60:                                               ; preds = %53
  %61 = load ptr, ptr %5, align 8, !tbaa !15
  %62 = load i32, ptr %9, align 4, !tbaa !18
  %63 = call ptr @createTestNode(ptr noundef %61, i32 noundef %62)
  store ptr %63, ptr %7, align 8, !tbaa !3
  %64 = load ptr, ptr %7, align 8, !tbaa !3
  %65 = load ptr, ptr %8, align 8, !tbaa !3
  %66 = getelementptr inbounds nuw %struct.TestNode, ptr %65, i32 0, i32 1
  store ptr %64, ptr %66, align 8, !tbaa !10
  br label %68

67:                                               ; preds = %53
  br label %45, !llvm.loop !23

68:                                               ; preds = %60, %45
  %69 = load ptr, ptr %6, align 8, !tbaa !15
  %70 = icmp eq ptr %69, null
  br i1 %70, label %71, label %73

71:                                               ; preds = %68
  %72 = load ptr, ptr %7, align 8, !tbaa !3
  store ptr %72, ptr %3, align 8
  store i32 1, ptr %10, align 4
  br label %76

73:                                               ; preds = %68
  %74 = load ptr, ptr %6, align 8, !tbaa !15
  store ptr %74, ptr %5, align 8, !tbaa !15
  %75 = load ptr, ptr %7, align 8, !tbaa !3
  store ptr %75, ptr %8, align 8, !tbaa !3
  br label %20

76:                                               ; preds = %71, %42
  call void @llvm.lifetime.end.p0(i64 4, ptr %9) #12
  call void @llvm.lifetime.end.p0(i64 8, ptr %8) #12
  call void @llvm.lifetime.end.p0(i64 8, ptr %7) #12
  call void @llvm.lifetime.end.p0(i64 8, ptr %6) #12
  %77 = load ptr, ptr %3, align 8
  ret ptr %77
}

; Function Attrs: nounwind uwtable
define internal ptr @createTestNode(ptr noundef %0, i32 noundef %1) #0 {
  %3 = alloca ptr, align 8
  %4 = alloca i32, align 4
  %5 = alloca ptr, align 8
  store ptr %0, ptr %3, align 8, !tbaa !15
  store i32 %1, ptr %4, align 4, !tbaa !18
  call void @llvm.lifetime.start.p0(i64 8, ptr %5) #12
  %6 = load i32, ptr %4, align 4, !tbaa !18
  %7 = add nsw i32 %6, 1
  %8 = sext i32 %7 to i64
  %9 = add i64 32, %8
  %10 = call noalias ptr @malloc(i64 noundef %9) #13
  store ptr %10, ptr %5, align 8, !tbaa !3
  %11 = load ptr, ptr %5, align 8, !tbaa !3
  %12 = getelementptr inbounds nuw %struct.TestNode, ptr %11, i32 0, i32 0
  store ptr null, ptr %12, align 8, !tbaa !17
  %13 = load ptr, ptr %5, align 8, !tbaa !3
  %14 = getelementptr inbounds nuw %struct.TestNode, ptr %13, i32 0, i32 1
  store ptr null, ptr %14, align 8, !tbaa !10
  %15 = load ptr, ptr %5, align 8, !tbaa !3
  %16 = getelementptr inbounds nuw %struct.TestNode, ptr %15, i32 0, i32 2
  store ptr null, ptr %16, align 8, !tbaa !8
  %17 = load i32, ptr %4, align 4, !tbaa !18
  %18 = icmp sgt i32 %17, 0
  br i1 %18, label %19, label %27

19:                                               ; preds = %2
  %20 = load ptr, ptr %5, align 8, !tbaa !3
  %21 = getelementptr inbounds nuw %struct.TestNode, ptr %20, i32 0, i32 3
  %22 = getelementptr inbounds [1 x i8], ptr %21, i64 0, i64 0
  %23 = load ptr, ptr %3, align 8, !tbaa !15
  %24 = load i32, ptr %4, align 4, !tbaa !18
  %25 = sext i32 %24 to i64
  %26 = call ptr @strncpy(ptr noundef %22, ptr noundef %23, i64 noundef %25) #12
  br label %27

27:                                               ; preds = %19, %2
  %28 = load ptr, ptr %5, align 8, !tbaa !3
  %29 = getelementptr inbounds nuw %struct.TestNode, ptr %28, i32 0, i32 3
  %30 = load i32, ptr %4, align 4, !tbaa !18
  %31 = sext i32 %30 to i64
  %32 = getelementptr inbounds [1 x i8], ptr %29, i64 0, i64 %31
  store i8 0, ptr %32, align 1, !tbaa !20
  %33 = load ptr, ptr %5, align 8, !tbaa !3
  call void @llvm.lifetime.end.p0(i64 8, ptr %5) #12
  ret ptr %33
}

; Function Attrs: nounwind uwtable
define void @addTest(ptr noundef %0, ptr noundef %1, ptr noundef %2) #0 {
  %4 = alloca ptr, align 8
  %5 = alloca ptr, align 8
  %6 = alloca ptr, align 8
  %7 = alloca ptr, align 8
  store ptr %0, ptr %4, align 8, !tbaa !11
  store ptr %1, ptr %5, align 8, !tbaa !14
  store ptr %2, ptr %6, align 8, !tbaa !15
  call void @llvm.lifetime.start.p0(i64 8, ptr %7) #12
  %8 = load ptr, ptr %4, align 8, !tbaa !11
  %9 = load ptr, ptr %8, align 8, !tbaa !3
  %10 = icmp eq ptr %9, null
  br i1 %10, label %11, label %14

11:                                               ; preds = %3
  %12 = call ptr @createTestNode(ptr noundef @.str, i32 noundef 0)
  %13 = load ptr, ptr %4, align 8, !tbaa !11
  store ptr %12, ptr %13, align 8, !tbaa !3
  br label %14

14:                                               ; preds = %11, %3
  %15 = load ptr, ptr %4, align 8, !tbaa !11
  %16 = load ptr, ptr %15, align 8, !tbaa !3
  %17 = load ptr, ptr %6, align 8, !tbaa !15
  %18 = call ptr @addTestNode(ptr noundef %16, ptr noundef %17)
  store ptr %18, ptr %7, align 8, !tbaa !3
  %19 = load ptr, ptr %5, align 8, !tbaa !14
  %20 = load ptr, ptr %7, align 8, !tbaa !3
  %21 = getelementptr inbounds nuw %struct.TestNode, ptr %20, i32 0, i32 0
  store ptr %19, ptr %21, align 8, !tbaa !17
  call void @llvm.lifetime.end.p0(i64 8, ptr %7) #12
  ret void
}