; Function Attrs: nofree nounwind uwtable
define void @addTest(ptr noundef captures(none) %0, ptr noundef %1, ptr noundef %2) local_unnamed_addr #2 {
  %4 = load ptr, ptr %0, align 8, !tbaa !10
  %5 = icmp eq ptr %4, null
  br i1 %5, label %6, label %8

6:                                                ; preds = %3
  %7 = tail call noalias dereferenceable_or_null(33) ptr @malloc(i64 noundef 33) #24
  tail call void @llvm.memset.p0.i64(ptr noundef nonnull align 8 dereferenceable(25) %7, i8 0, i64 25, i1 false)
  store ptr %7, ptr %0, align 8, !tbaa !10
  br label %8

8:                                                ; preds = %6, %3
  %9 = phi ptr [ %7, %6 ], [ %4, %3 ]
  %10 = load i8, ptr %2, align 1, !tbaa !11
  %11 = icmp eq i8 %10, 47
  %spec.select.idx.i = zext i1 %11 to i64
  %spec.select.i = getelementptr inbounds nuw i8, ptr %2, i64 %spec.select.idx.i
  br label %12

12:                                               ; preds = %.loopexit47.i, %8
  %.126.i = phi ptr [ %spec.select.i, %8 ], [ %.041.i, %.loopexit47.i ]
  %.0.i = phi ptr [ %9, %8 ], [ %.124.i, %.loopexit47.i ]
  %13 = getelementptr inbounds nuw i8, ptr %.0.i, i64 16
  %14 = load ptr, ptr %13, align 8, !tbaa !3
  %15 = tail call ptr @strchr(ptr noundef nonnull dereferenceable(1) %.126.i, i32 noundef 47) #25
  %.not.i.i = icmp eq ptr %15, null
  br i1 %.not.i.i, label %21, label %16

16:                                               ; preds = %12
  %17 = ptrtoint ptr %15 to i64
  %18 = ptrtoint ptr %.126.i to i64
  %19 = sub i64 %17, %18
  %20 = getelementptr inbounds nuw i8, ptr %15, i64 1
  br label %getNextLevel.exit.i

21:                                               ; preds = %12
  %22 = tail call i64 @strlen(ptr noundef nonnull dereferenceable(1) %.126.i) #25
  br label %getNextLevel.exit.i

getNextLevel.exit.i:                              ; preds = %21, %16
  %.041.i = phi ptr [ null, %21 ], [ %20, %16 ]
  %.sink.in.i.i = phi i64 [ %22, %21 ], [ %19, %16 ]
  %.sink.i.i = trunc i64 %.sink.in.i.i to i32
  %23 = icmp eq ptr %14, null
  br i1 %23, label %.preheader.i, label %.preheader46.i

.preheader46.i:                                   ; preds = %getNextLevel.exit.i
  %sext.i = shl i64 %.sink.in.i.i, 32
  %.pre.i.i = ashr exact i64 %sext.i, 32
  br label %43

.preheader.i:                                     ; preds = %getNextLevel.exit.i, %createTestNode.exit.i
  %.2.i = phi ptr [ %.142.i, %createTestNode.exit.i ], [ %.126.i, %getNextLevel.exit.i ]
  %.1.i = phi ptr [ %34, %createTestNode.exit.i ], [ %.0.i, %getNextLevel.exit.i ]
  %24 = tail call ptr @strchr(ptr noundef nonnull dereferenceable(1) %.2.i, i32 noundef 47) #25
  %.not.i32.i = icmp eq ptr %24, null
  br i1 %.not.i32.i, label %30, label %25

25:                                               ; preds = %.preheader.i
  %26 = ptrtoint ptr %24 to i64
  %27 = ptrtoint ptr %.2.i to i64
  %28 = sub i64 %26, %27
  %29 = getelementptr inbounds nuw i8, ptr %24, i64 1
  br label %getNextLevel.exit35.i

30:                                               ; preds = %.preheader.i
  %31 = tail call i64 @strlen(ptr noundef nonnull dereferenceable(1) %.2.i) #25
  br label %getNextLevel.exit35.i

getNextLevel.exit35.i:                            ; preds = %30, %25
  %.142.i = phi ptr [ null, %30 ], [ %29, %25 ]
  %.sink.in.i33.i = phi i64 [ %31, %30 ], [ %28, %25 ]
  %.sink.i34.i = trunc i64 %.sink.in.i33.i to i32
  %sext45.i = shl i64 %.sink.in.i33.i, 32
  %32 = ashr exact i64 %sext45.i, 32
  %33 = add nsw i64 %32, 33
  %34 = tail call noalias ptr @malloc(i64 noundef %33) #24
  %35 = icmp sgt i32 %.sink.i34.i, 0
  tail call void @llvm.memset.p0.i64(ptr noundef nonnull align 8 dereferenceable(24) %34, i8 0, i64 24, i1 false)
  br i1 %35, label %36, label %createTestNode.exit.i

36:                                               ; preds = %getNextLevel.exit35.i
  %37 = getelementptr inbounds nuw i8, ptr %34, i64 24
  %38 = and i64 %.sink.in.i33.i, 2147483647
  %39 = tail call ptr @strncpy(ptr noundef nonnull %37, ptr noundef nonnull readonly %.2.i, i64 noundef %38) #23
  br label %createTestNode.exit.i

createTestNode.exit.i:                            ; preds = %36, %getNextLevel.exit35.i
  %40 = getelementptr inbounds nuw i8, ptr %34, i64 24
  %41 = getelementptr inbounds [1 x i8], ptr %40, i64 0, i64 %32
  store i8 0, ptr %41, align 1, !tbaa !11
  %42 = getelementptr inbounds nuw i8, ptr %.1.i, i64 16
  store ptr %34, ptr %42, align 8, !tbaa !3
  %.not31.i = icmp eq ptr %.142.i, null
  br i1 %.not31.i, label %addTestNode.exit, label %.preheader.i, !llvm.loop !12

43:                                               ; preds = %strncmp_nullcheck.exit.thread.i, %.preheader46.i
  %.023.i = phi ptr [ %52, %strncmp_nullcheck.exit.thread.i ], [ %14, %.preheader46.i ]
  %44 = getelementptr inbounds nuw i8, ptr %.023.i, i64 24
  %45 = tail call i64 @strlen(ptr noundef nonnull readonly dereferenceable(1) %44) #25
  %46 = trunc i64 %45 to i32
  %.not.i36.i = icmp sgt i32 %.sink.i.i, %46
  br i1 %.not.i36.i, label %strncmp_nullcheck.exit.i, label %47

47:                                               ; preds = %43
  %48 = getelementptr inbounds i8, ptr %44, i64 %.pre.i.i
  %49 = load i8, ptr %48, align 1, !tbaa !11
  %.not8.i.i = icmp eq i8 %49, 0
  br i1 %.not8.i.i, label %strncmp_nullcheck.exit.i, label %strncmp_nullcheck.exit.thread.i

strncmp_nullcheck.exit.i:                         ; preds = %47, %43
  %50 = tail call i32 @strncmp(ptr noundef nonnull readonly %.126.i, ptr noundef nonnull readonly %44, i64 noundef %.pre.i.i) #25
  %.not.i = icmp eq i32 %50, 0
  br i1 %.not.i, label %.loopexit47.i, label %strncmp_nullcheck.exit.thread.i

strncmp_nullcheck.exit.thread.i:                  ; preds = %strncmp_nullcheck.exit.i, %47
  %51 = getelementptr inbounds nuw i8, ptr %.023.i, i64 8
  %52 = load ptr, ptr %51, align 8, !tbaa !9
  %53 = icmp eq ptr %52, null
  br i1 %53, label %54, label %43, !llvm.loop !14

54:                                               ; preds = %strncmp_nullcheck.exit.thread.i
  %55 = getelementptr inbounds nuw i8, ptr %.023.i, i64 8
  %56 = add nsw i64 %.pre.i.i, 33
  %57 = tail call noalias ptr @malloc(i64 noundef %56) #24
  %58 = icmp sgt i32 %.sink.i.i, 0
  tail call void @llvm.memset.p0.i64(ptr noundef nonnull align 8 dereferenceable(24) %57, i8 0, i64 24, i1 false)
  br i1 %58, label %59, label %createTestNode.exit37.i

59:                                               ; preds = %54
  %60 = getelementptr inbounds nuw i8, ptr %57, i64 24
  %61 = and i64 %.sink.in.i.i, 2147483647
  %62 = tail call ptr @strncpy(ptr noundef nonnull %60, ptr noundef nonnull readonly %.126.i, i64 noundef %61) #23
  br label %createTestNode.exit37.i

createTestNode.exit37.i:                          ; preds = %59, %54
  %63 = getelementptr inbounds nuw i8, ptr %57, i64 24
  %64 = getelementptr inbounds [1 x i8], ptr %63, i64 0, i64 %.pre.i.i
  store i8 0, ptr %64, align 1, !tbaa !11
  store ptr %57, ptr %55, align 8, !tbaa !9
  br label %.loopexit47.i

.loopexit47.i:                                    ; preds = %strncmp_nullcheck.exit.i, %createTestNode.exit37.i
  %.124.i = phi ptr [ %57, %createTestNode.exit37.i ], [ %.023.i, %strncmp_nullcheck.exit.i ]
  %65 = icmp eq ptr %.041.i, null
  br i1 %65, label %addTestNode.exit, label %12

addTestNode.exit:                                 ; preds = %.loopexit47.i, %createTestNode.exit.i
  %.027.i = phi ptr [ %34, %createTestNode.exit.i ], [ %.124.i, %.loopexit47.i ]
  store ptr %1, ptr %.027.i, align 8, !tbaa !15
  ret void
}